target datalayout = "e-m:e-p270:32:32-p271:32:32-p272:64:64-i64:64-i128:128-f80:128-n8:16:32:64-S128"
target triple = "x86_64-pc-linux-gnu"

%struct.PJconsts = type { ptr, ptr, ptr, ptr, ptr, ptr, ptr, ptr, ptr, ptr, ptr, ptr, i32, ptr, ptr, ptr, ptr, ptr, ptr, ptr, ptr, double, double, double, double, double, double, double, double, double, double, double, double, double, double, double, double, double, double, double, double, double, double, i32, i32, i32, i32, i32, i32, i32, i32, i32, i32, i32, ptr, ptr, ptr, ptr, ptr, ptr, double, double, double, double, double, double, double, double, double, double, double, i32, [7 x double], i32, ptr, ptr, double, double, i32, [4 x i8], %"class.std::shared_ptr", i8, double, i8, %"class.std::__cxx11::basic_string", %"class.std::__cxx11::basic_string", %"class.std::__cxx11::basic_string", i8, %"class.std::vector", i32, %"class.std::vector.3", i32, i8, i8, i8, ptr }
%"class.std::shared_ptr" = type { %"class.std::__shared_ptr" }
%"class.std::__shared_ptr" = type { ptr, %"class.std::__shared_count" }
%"class.std::__shared_count" = type { ptr }
%"class.std::__cxx11::basic_string" = type { %"struct.std::__cxx11::basic_string<char>::_Alloc_hider", i64, %union.anon }
%"struct.std::__cxx11::basic_string<char>::_Alloc_hider" = type { ptr }
%union.anon = type { i64, [8 x i8] }
%"class.std::vector" = type { %"struct.std::_Vector_base" }
%"struct.std::_Vector_base" = type { %"struct.std::_Vector_base<osgeo::proj::operation::GridDescription, std::allocator<osgeo::proj::operation::GridDescription>>::_Vector_impl" }
%"struct.std::_Vector_base<osgeo::proj::operation::GridDescription, std::allocator<osgeo::proj::operation::GridDescription>>::_Vector_impl" = type { %"struct.std::_Vector_base<osgeo::proj::operation::GridDescription, std::allocator<osgeo::proj::operation::GridDescription>>::_Vector_impl_data" }
%"struct.std::_Vector_base<osgeo::proj::operation::GridDescription, std::allocator<osgeo::proj::operation::GridDescription>>::_Vector_impl_data" = type { ptr, ptr, ptr }
%"class.std::vector.3" = type { %"struct.std::_Vector_base.4" }
%"struct.std::_Vector_base.4" = type { %"struct.std::_Vector_base<PJCoordOperation, std::allocator<PJCoordOperation>>::_Vector_impl" }
%"struct.std::_Vector_base<PJCoordOperation, std::allocator<PJCoordOperation>>::_Vector_impl" = type { %"struct.std::_Vector_base<PJCoordOperation, std::allocator<PJCoordOperation>>::_Vector_impl_data" }
%"struct.std::_Vector_base<PJCoordOperation, std::allocator<PJCoordOperation>>::_Vector_impl_data" = type { ptr, ptr, ptr }
%struct.PJ_LP = type { double, double }
%struct.PJ_XY = type { double, double }

; Function Attrs: mustprogress uwtable
define internal { double, double } @_ZL15putp2_s_inverse5PJ_XYP8PJconsts(double %0, double %1, ptr noundef %2) #0 {
  %4 = alloca %struct.PJ_LP, align 8
  %5 = alloca %struct.PJ_XY, align 8
  %6 = alloca ptr, align 8
  %7 = alloca double, align 8
  %8 = getelementptr inbounds nuw { double, double }, ptr %5, i32 0, i32 0
  store double %0, ptr %8, align 8
  %9 = getelementptr inbounds nuw { double, double }, ptr %5, i32 0, i32 1
  store double %1, ptr %9, align 8
  store ptr %2, ptr %6, align 8, !tbaa !3
  call void @llvm.memset.p0.i64(ptr align 8 %4, i8 0, i64 16, i1 false)
  %10 = load ptr, ptr %6, align 8, !tbaa !3
  %11 = getelementptr inbounds nuw %struct.PJconsts, ptr %10, i32 0, i32 0
  %12 = load ptr, ptr %11, align 8, !tbaa !44
  %13 = getelementptr inbounds nuw %struct.PJ_XY, ptr %5, i32 0, i32 1
  %14 = load double, ptr %13, align 8, !tbaa !45
  %15 = fdiv double %14, 1.718480e+00
  %16 = call noundef double @_Z5aasinP6pj_ctxd(ptr noundef %12, double noundef %15)
  %17 = getelementptr inbounds nuw %struct.PJ_LP, ptr %4, i32 0, i32 1
  store double %16, ptr %17, align 8, !tbaa !47
  call void @llvm.lifetime.start.p0(i64 8, ptr %7) #7
  %18 = getelementptr inbounds nuw %struct.PJ_LP, ptr %4, i32 0, i32 1
  %19 = load double, ptr %18, align 8, !tbaa !47
  %20 = call double @cos(double noundef %19) #7, !tbaa !49
  store double %20, ptr %7, align 8, !tbaa !50
  %21 = getelementptr inbounds nuw %struct.PJ_XY, ptr %5, i32 0, i32 0
  %22 = load double, ptr %21, align 8, !tbaa !51
  %23 = load double, ptr %7, align 8, !tbaa !50
  %24 = fsub double %23, 5.000000e-01
  %25 = fmul double 1.894900e+00, %24
  %26 = fdiv double %22, %25
  %27 = getelementptr inbounds nuw %struct.PJ_LP, ptr %4, i32 0, i32 0
  store double %26, ptr %27, align 8, !tbaa !52
  %28 = load ptr, ptr %6, align 8, !tbaa !3
  %29 = getelementptr inbounds nuw %struct.PJconsts, ptr %28, i32 0, i32 0
  %30 = load ptr, ptr %29, align 8, !tbaa !44
  %31 = getelementptr inbounds nuw %struct.PJ_LP, ptr %4, i32 0, i32 1
  %32 = load double, ptr %31, align 8, !tbaa !47
  %33 = getelementptr inbounds nuw %struct.PJ_LP, ptr %4, i32 0, i32 1
  %34 = load double, ptr %33, align 8, !tbaa !47
  %35 = call double @sin(double noundef %34) #7, !tbaa !49
  %36 = load double, ptr %7, align 8, !tbaa !50
  %37 = fsub double %36, 1.000000e+00
  %38 = call double @llvm.fmuladd.f64(double %35, double %37, double %32)
  %39 = fdiv double %38, 0x3FE3A766FC2EC076
  %40 = call noundef double @_Z5aasinP6pj_ctxd(ptr noundef %30, double noundef %39)
  %41 = getelementptr inbounds nuw %struct.PJ_LP, ptr %4, i32 0, i32 1
  store double %40, ptr %41, align 8, !tbaa !47
  call void @llvm.lifetime.end.p0(i64 8, ptr %7) #7
  %42 = load { double, double }, ptr %4, align 8
  ret { double, double } %42
}