; Function Attrs: mustprogress uwtable
define internal { double, double } @_ZL15putp2_s_inverse5PJ_XYP8PJconsts(double %0, double %1, ptr noundef readonly captures(none) %2) #0 {
  %4 = load ptr, ptr %2, align 8, !tbaa !43
  %5 = fdiv double %1, 1.718480e+00
  %6 = tail call noundef double @_Z5aasinP6pj_ctxd(ptr noundef %4, double noundef %5)
  %7 = tail call double @cos(double noundef %6) #6, !tbaa !44
  %8 = fadd double %7, -5.000000e-01
  %9 = fmul double %8, 1.894900e+00
  %10 = fdiv double %0, %9
  %11 = load ptr, ptr %2, align 8, !tbaa !43
  %12 = tail call double @sin(double noundef %6) #6, !tbaa !44
  %13 = fadd double %7, -1.000000e+00
  %14 = tail call double @llvm.fmuladd.f64(double %12, double %13, double %6)
  %15 = fdiv double %14, 0x3FE3A766FC2EC076
  %16 = tail call noundef double @_Z5aasinP6pj_ctxd(ptr noundef %11, double noundef %15)
  %.fca.0.insert = insertvalue { double, double } poison, double %10, 0
  %.fca.1.insert = insertvalue { double, double } %.fca.0.insert, double %16, 1
  ret { double, double } %.fca.1.insert
}